target datalayout = "e-m:e-p270:32:32-p271:32:32-p272:64:64-i64:64-i128:128-f80:128-n8:16:32:64-S128"
target triple = "x86_64-pc-linux-gnu"

%"class.std::__cxx11::basic_string" = type { %"struct.std::__cxx11::basic_string<char>::_Alloc_hider", i64, %union.anon }
%"struct.std::__cxx11::basic_string<char>::_Alloc_hider" = type { ptr }
%union.anon = type { i64, [8 x i8] }
%class.App = type { i8, i8, i8, i64, i64, float, float, %"class.std::__cxx11::basic_string", i32, [4 x i8], %"class.cv::VideoCapture", %"class.cv::Mat", %"class.cv::Mat", %"class.opencl::PlatformInfo", %"class.opencl::DeviceInfo", %"class.std::vector.12", ptr, ptr, ptr, ptr, ptr, ptr, ptr, ptr }
%"class.cv::VideoCapture" = type <{ ptr, %"struct.cv::Ptr", %"struct.cv::Ptr.0", i8, [7 x i8] }>
%"struct.cv::Ptr" = type { %"class.std::shared_ptr" }
%"class.std::shared_ptr" = type { %"class.std::__shared_ptr" }
%"class.std::__shared_ptr" = type { ptr, %"class.std::__shared_count" }
%"class.std::__shared_count" = type { ptr }
%"struct.cv::Ptr.0" = type { %"class.std::shared_ptr.1" }
%"class.std::shared_ptr.1" = type { %"class.std::__shared_ptr.2" }
%"class.std::__shared_ptr.2" = type { ptr, %"class.std::__shared_count" }
%"class.cv::Mat" = type { i32, i32, i32, i32, ptr, ptr, ptr, ptr, ptr, ptr, %"struct.cv::MatSize", %"struct.cv::MatStep" }
%"struct.cv::MatSize" = type { ptr }
%"struct.cv::MatStep" = type { ptr, [2 x i64] }
%"class.opencl::PlatformInfo" = type { %"class.std::__cxx11::basic_string", %"class.std::__cxx11::basic_string", %"class.std::__cxx11::basic_string", %"class.std::__cxx11::basic_string", %"class.std::__cxx11::basic_string" }
%"class.opencl::DeviceInfo" = type <{ i64, i32, i32, i32, [4 x i8], %"class.std::vector", i64, i32, i32, i32, i32, i32, i32, i32, i32, i32, i32, i32, i32, i32, i32, i32, i32, i64, i32, i32, i32, i32, i64, i64, i64, i64, i64, i64, i64, i32, i32, i32, i32, i32, i32, i64, i32, [4 x i8], i64, i64, i32, i32, i64, i64, i64, i32, [4 x i8], i64, i64, i32, [4 x i8], i64, i32, i32, i64, i32, i32, i32, i32, i64, i64, i64, i64, i32, i32, i32, i32, %"class.std::__cxx11::basic_string", ptr, %"class.std::__cxx11::basic_string", %"class.std::__cxx11::basic_string", %"class.std::__cxx11::basic_string", %"class.std::__cxx11::basic_string", %"class.std::__cxx11::basic_string", %"class.std::__cxx11::basic_string", %"class.std::__cxx11::basic_string", i64, i32, [4 x i8], ptr, i32, [4 x i8], %"class.std::vector.7", i64, %"class.std::vector.7", i32, [4 x i8] }>
%"class.std::vector" = type { %"struct.std::_Vector_base" }
%"struct.std::_Vector_base" = type { %"struct.std::_Vector_base<unsigned long, std::allocator<unsigned long>>::_Vector_impl" }
%"struct.std::_Vector_base<unsigned long, std::allocator<unsigned long>>::_Vector_impl" = type { %"struct.std::_Vector_base<unsigned long, std::allocator<unsigned long>>::_Vector_impl_data" }
%"struct.std::_Vector_base<unsigned long, std::allocator<unsigned long>>::_Vector_impl_data" = type { ptr, ptr, ptr }
%"class.std::vector.7" = type { %"struct.std::_Vector_base.8" }
%"struct.std::_Vector_base.8" = type { %"struct.std::_Vector_base<long, std::allocator<long>>::_Vector_impl" }
%"struct.std::_Vector_base<long, std::allocator<long>>::_Vector_impl" = type { %"struct.std::_Vector_base<long, std::allocator<long>>::_Vector_impl_data" }
%"struct.std::_Vector_base<long, std::allocator<long>>::_Vector_impl_data" = type { ptr, ptr, ptr }
%"class.std::vector.12" = type { %"struct.std::_Vector_base.13" }
%"struct.std::_Vector_base.13" = type { %"struct.std::_Vector_base<_cl_platform_id *, std::allocator<_cl_platform_id *>>::_Vector_impl" }
%"struct.std::_Vector_base<_cl_platform_id *, std::allocator<_cl_platform_id *>>::_Vector_impl" = type { %"struct.std::_Vector_base<_cl_platform_id *, std::allocator<_cl_platform_id *>>::_Vector_impl_data" }
%"struct.std::_Vector_base<_cl_platform_id *, std::allocator<_cl_platform_id *>>::_Vector_impl_data" = type { ptr, ptr, ptr }
%"class.cv::Point_" = type { i32, i32 }
%"class.cv::Size_" = type { i32, i32 }
%"class.cv::Rect_" = type { i32, i32, i32, i32 }
%"class.cv::UMat" = type { i32, i32, i32, i32, ptr, i32, ptr, i64, %"struct.cv::MatSize", %"struct.cv::MatStep" }
%"class.cv::_InputArray" = type { i32, ptr, %"class.cv::Size_" }
%"class.cv::_OutputArray" = type { %"class.cv::_InputArray" }

; Function Attrs: inlinehint mustprogress uwtable
define linkonce_odr hidden void @_ZN2cv11_InputArrayC2Ev(ptr noundef nonnull align 8 dereferenceable(24) %0) unnamed_addr #6 comdat align 2 {
  %2 = alloca ptr, align 8
  store ptr %0, ptr %2, align 8, !tbaa !161
  %3 = load ptr, ptr %2, align 8
  %4 = getelementptr inbounds nuw %"class.cv::_InputArray", ptr %3, i32 0, i32 2
  call void @_ZN2cv5Size_IiEC2Ev(ptr noundef nonnull align 4 dereferenceable(8) %4)
  call void @_ZN2cv11_InputArray4initEiPKv(ptr noundef nonnull align 8 dereferenceable(24) %3, i32 noundef 0, ptr noundef null)
  ret void
}

; Function Attrs: inlinehint mustprogress nounwind uwtable
define linkonce_odr hidden void @_ZN2cv11_InputArray4initEiPKv(ptr noundef nonnull align 8 dereferenceable(24) %0, i32 noundef %1, ptr noundef %2) #12 comdat align 2 {
  %4 = alloca ptr, align 8
  %5 = alloca i32, align 4
  %6 = alloca ptr, align 8
  store ptr %0, ptr %4, align 8, !tbaa !161
  store i32 %1, ptr %5, align 4, !tbaa !91
  store ptr %2, ptr %6, align 8, !tbaa !89
  %7 = load ptr, ptr %4, align 8
  %8 = load i32, ptr %5, align 4, !tbaa !91
  %9 = getelementptr inbounds nuw %"class.cv::_InputArray", ptr %7, i32 0, i32 0
  store i32 %8, ptr %9, align 8, !tbaa !245
  %10 = load ptr, ptr %6, align 8, !tbaa !89
  %11 = getelementptr inbounds nuw %"class.cv::_InputArray", ptr %7, i32 0, i32 1
  store ptr %10, ptr %11, align 8, !tbaa !247
  ret void
}

; Function Attrs: inlinehint mustprogress nounwind uwtable
define linkonce_odr hidden void @_ZN2cv5Size_IiEC2Ev(ptr noundef nonnull align 4 dereferenceable(8) %0) unnamed_addr #12 comdat align 2 {
  %2 = alloca ptr, align 8
  store ptr %0, ptr %2, align 8, !tbaa !149
  %3 = load ptr, ptr %2, align 8
  %4 = getelementptr inbounds nuw %"class.cv::Size_", ptr %3, i32 0, i32 0
  store i32 0, ptr %4, align 4, !tbaa !151
  %5 = getelementptr inbounds nuw %"class.cv::Size_", ptr %3, i32 0, i32 1
  store i32 0, ptr %5, align 4, !tbaa !153
  ret void
}

; Function Attrs: inlinehint mustprogress nounwind uwtable
define linkonce_odr hidden void @_ZN2cv11_InputArrayD2Ev(ptr noundef nonnull align 8 dereferenceable(24) %0) unnamed_addr #12 comdat align 2 {
  %2 = alloca ptr, align 8
  store ptr %0, ptr %2, align 8, !tbaa !161
  ret void
}

; Function Attrs: inlinehint mustprogress uwtable
define linkonce_odr hidden void @_ZN2cv12_OutputArrayC2ERNS_4UMatE(ptr noundef nonnull align 8 dereferenceable(24) %0, ptr noundef nonnull align 8 dereferenceable(80) %1) unnamed_addr #6 comdat align 2 {
  %3 = alloca ptr, align 8
  %4 = alloca ptr, align 8
  store ptr %0, ptr %3, align 8, !tbaa !163
  store ptr %1, ptr %4, align 8, !tbaa !138
  %5 = load ptr, ptr %3, align 8
  call void @_ZN2cv11_InputArrayC2Ev(ptr noundef nonnull align 8 dereferenceable(24) %5)
  %6 = load ptr, ptr %4, align 8, !tbaa !138
  call void @_ZN2cv11_InputArray4initEiPKv(ptr noundef nonnull align 8 dereferenceable(24) %5, i32 noundef 34209792, ptr noundef %6)
  ret void
}

; Function Attrs: inlinehint mustprogress uwtable
define linkonce_odr hidden void @_ZN2cv11_InputArrayC2ERKNS_4UMatE(ptr noundef nonnull align 8 dereferenceable(24) %0, ptr noundef nonnull align 8 dereferenceable(80) %1) unnamed_addr #6 comdat align 2 {
  %3 = alloca ptr, align 8
  %4 = alloca ptr, align 8
  store ptr %0, ptr %3, align 8, !tbaa !161
  store ptr %1, ptr %4, align 8, !tbaa !138
  %5 = load ptr, ptr %3, align 8
  %6 = getelementptr inbounds nuw %"class.cv::_InputArray", ptr %5, i32 0, i32 2
  call void @_ZN2cv5Size_IiEC2Ev(ptr noundef nonnull align 4 dereferenceable(8) %6)
  %7 = load ptr, ptr %4, align 8, !tbaa !138
  call void @_ZN2cv11_InputArray4initEiPKv(ptr noundef nonnull align 8 dereferenceable(24) %5, i32 noundef 17432576, ptr noundef %7)
  ret void
}

; Function Attrs: inlinehint mustprogress nounwind uwtable
define linkonce_odr hidden void @_ZN2cv5Rect_IiEC2ERKNS_6Point_IiEERKNS_5Size_IiEE(ptr noundef nonnull align 4 dereferenceable(16) %0, ptr noundef nonnull align 4 dereferenceable(8) %1, ptr noundef nonnull align 4 dereferenceable(8) %2) unnamed_addr #12 comdat align 2 {
  %4 = alloca ptr, align 8
  %5 = alloca ptr, align 8
  %6 = alloca ptr, align 8
  store ptr %0, ptr %4, align 8, !tbaa !154
  store ptr %1, ptr %5, align 8, !tbaa !144
  store ptr %2, ptr %6, align 8, !tbaa !149
  %7 = load ptr, ptr %4, align 8
  %8 = getelementptr inbounds nuw %"class.cv::Rect_", ptr %7, i32 0, i32 0
  %9 = load ptr, ptr %5, align 8, !tbaa !144
  %10 = getelementptr inbounds nuw %"class.cv::Point_", ptr %9, i32 0, i32 0
  %11 = load i32, ptr %10, align 4, !tbaa !146
  store i32 %11, ptr %8, align 4, !tbaa !156
  %12 = getelementptr inbounds nuw %"class.cv::Rect_", ptr %7, i32 0, i32 1
  %13 = load ptr, ptr %5, align 8, !tbaa !144
  %14 = getelementptr inbounds nuw %"class.cv::Point_", ptr %13, i32 0, i32 1
  %15 = load i32, ptr %14, align 4, !tbaa !148
  store i32 %15, ptr %12, align 4, !tbaa !158
  %16 = getelementptr inbounds nuw %"class.cv::Rect_", ptr %7, i32 0, i32 2
  %17 = load ptr, ptr %6, align 8, !tbaa !149
  %18 = getelementptr inbounds nuw %"class.cv::Size_", ptr %17, i32 0, i32 0
  %19 = load i32, ptr %18, align 4, !tbaa !151
  store i32 %19, ptr %16, align 4, !tbaa !159
  %20 = getelementptr inbounds nuw %"class.cv::Rect_", ptr %7, i32 0, i32 3
  %21 = load ptr, ptr %6, align 8, !tbaa !149
  %22 = getelementptr inbounds nuw %"class.cv::Size_", ptr %21, i32 0, i32 1
  %23 = load i32, ptr %22, align 4, !tbaa !153
  store i32 %23, ptr %20, align 4, !tbaa !160
  ret void
}

; Function Attrs: inlinehint mustprogress nounwind uwtable
define linkonce_odr hidden void @_ZN2cv5Size_IiEC2Eii(ptr noundef nonnull align 4 dereferenceable(8) %0, i32 noundef %1, i32 noundef %2) unnamed_addr #12 comdat align 2 {
  %4 = alloca ptr, align 8
  %5 = alloca i32, align 4
  %6 = alloca i32, align 4
  store ptr %0, ptr %4, align 8, !tbaa !149
  store i32 %1, ptr %5, align 4, !tbaa !91
  store i32 %2, ptr %6, align 4, !tbaa !91
  %7 = load ptr, ptr %4, align 8
  %8 = getelementptr inbounds nuw %"class.cv::Size_", ptr %7, i32 0, i32 0
  %9 = load i32, ptr %5, align 4, !tbaa !91
  store i32 %9, ptr %8, align 4, !tbaa !151
  %10 = getelementptr inbounds nuw %"class.cv::Size_", ptr %7, i32 0, i32 1
  %11 = load i32, ptr %6, align 4, !tbaa !91
  store i32 %11, ptr %10, align 4, !tbaa !153
  ret void
}

; Function Attrs: inlinehint mustprogress nounwind uwtable
define linkonce_odr hidden void @_ZN2cv6Point_IiEC2Eii(ptr noundef nonnull align 4 dereferenceable(8) %0, i32 noundef %1, i32 noundef %2) unnamed_addr #12 comdat align 2 {
  %4 = alloca ptr, align 8
  %5 = alloca i32, align 4
  %6 = alloca i32, align 4
  store ptr %0, ptr %4, align 8, !tbaa !144
  store i32 %1, ptr %5, align 4, !tbaa !91
  store i32 %2, ptr %6, align 4, !tbaa !91
  %7 = load ptr, ptr %4, align 8
  %8 = getelementptr inbounds nuw %"class.cv::Point_", ptr %7, i32 0, i32 0
  %9 = load i32, ptr %5, align 4, !tbaa !91
  store i32 %9, ptr %8, align 4, !tbaa !146
  %10 = getelementptr inbounds nuw %"class.cv::Point_", ptr %7, i32 0, i32 1
  %11 = load i32, ptr %6, align 4, !tbaa !91
  store i32 %11, ptr %10, align 4, !tbaa !148
  ret void
}

; Function Attrs: mustprogress uwtable
define hidden noundef i32 @_ZN3App28process_cl_image_with_opencvEP7_cl_memRN2cv4UMatE(ptr noundef nonnull align 8 dereferenceable(1328) %0, ptr noundef %1, ptr noundef nonnull align 8 dereferenceable(80) %2) #4 align 2 personality ptr @__gxx_personality_v0 {
  %4 = alloca ptr, align 8
  %5 = alloca ptr, align 8
  %6 = alloca ptr, align 8
  %7 = alloca %"class.cv::Point_", align 4
  %8 = alloca %"class.cv::Size_", align 4
  %9 = alloca %"class.cv::Rect_", align 4
  %10 = alloca %"class.cv::UMat", align 8
  %11 = alloca %"class.cv::_InputArray", align 8
  %12 = alloca ptr, align 8
  %13 = alloca i32, align 4
  %14 = alloca %"class.cv::_OutputArray", align 8
  %15 = alloca %"class.cv::Size_", align 4
  %16 = alloca %"class.cv::Point_", align 4
  store ptr %0, ptr %4, align 8, !tbaa !4
  store ptr %1, ptr %5, align 8, !tbaa !115
  store ptr %2, ptr %6, align 8, !tbaa !138
  %17 = load ptr, ptr %4, align 8
  %18 = load ptr, ptr %5, align 8, !tbaa !115
  %19 = load ptr, ptr %6, align 8, !tbaa !138
  call void @_ZN2cv3ocl16convertFromImageEPvRNS_4UMatE(ptr noundef %18, ptr noundef nonnull align 8 dereferenceable(80) %19)
  call void @llvm.lifetime.start.p0(i64 8, ptr %7) #3
  %20 = load ptr, ptr %6, align 8, !tbaa !138
  %21 = getelementptr inbounds nuw %"class.cv::UMat", ptr %20, i32 0, i32 3
  %22 = load i32, ptr %21, align 4, !tbaa !140
  %23 = sdiv i32 %22, 2
  call void @_ZN2cv6Point_IiEC2Eii(ptr noundef nonnull align 4 dereferenceable(8) %7, i32 noundef %23, i32 noundef 0)
  call void @llvm.lifetime.start.p0(i64 8, ptr %8) #3
  %24 = load ptr, ptr %6, align 8, !tbaa !138
  %25 = getelementptr inbounds nuw %"class.cv::UMat", ptr %24, i32 0, i32 3
  %26 = load i32, ptr %25, align 4, !tbaa !140
  %27 = sdiv i32 %26, 2
  %28 = load ptr, ptr %6, align 8, !tbaa !138
  %29 = getelementptr inbounds nuw %"class.cv::UMat", ptr %28, i32 0, i32 2
  %30 = load i32, ptr %29, align 8, !tbaa !143
  call void @_ZN2cv5Size_IiEC2Eii(ptr noundef nonnull align 4 dereferenceable(8) %8, i32 noundef %27, i32 noundef %30)
  call void @llvm.lifetime.start.p0(i64 16, ptr %9) #3
  call void @_ZN2cv5Rect_IiEC2ERKNS_6Point_IiEERKNS_5Size_IiEE(ptr noundef nonnull align 4 dereferenceable(16) %9, ptr noundef nonnull align 4 dereferenceable(8) %7, ptr noundef nonnull align 4 dereferenceable(8) %8)
  call void @llvm.lifetime.start.p0(i64 80, ptr %10) #3
  %31 = load ptr, ptr %6, align 8, !tbaa !138
  call void @_ZN2cv4UMatC1ERKS0_RKNS_5Rect_IiEE(ptr noundef nonnull align 8 dereferenceable(80) %10, ptr noundef nonnull align 8 dereferenceable(80) %31, ptr noundef nonnull align 4 dereferenceable(16) %9)
  call void @llvm.lifetime.start.p0(i64 24, ptr %11) #3
  invoke void @_ZN2cv11_InputArrayC2ERKNS_4UMatE(ptr noundef nonnull align 8 dereferenceable(24) %11, ptr noundef nonnull align 8 dereferenceable(80) %10)
          to label %32 unwind label %45

32:                                               ; preds = %3
  call void @llvm.lifetime.start.p0(i64 24, ptr %14) #3
  invoke void @_ZN2cv12_OutputArrayC2ERNS_4UMatE(ptr noundef nonnull align 8 dereferenceable(24) %14, ptr noundef nonnull align 8 dereferenceable(80) %10)
          to label %33 unwind label %49

33:                                               ; preds = %32
  invoke void @_ZN2cv5Size_IiEC2Eii(ptr noundef nonnull align 4 dereferenceable(8) %15, i32 noundef 7, i32 noundef 7)
          to label %34 unwind label %53

34:                                               ; preds = %33
  invoke void @_ZN2cv6Point_IiEC2Eii(ptr noundef nonnull align 4 dereferenceable(8) %16, i32 noundef -3, i32 noundef -3)
          to label %35 unwind label %53

35:                                               ; preds = %34
  %36 = load i64, ptr %15, align 4
  %37 = load i64, ptr %16, align 4
  invoke void @_ZN2cv4blurERKNS_11_InputArrayERKNS_12_OutputArrayENS_5Size_IiEENS_6Point_IiEEi(ptr noundef nonnull align 8 dereferenceable(24) %11, ptr noundef nonnull align 8 dereferenceable(24) %14, i64 %36, i64 %37, i32 noundef 4)
          to label %38 unwind label %53

38:                                               ; preds = %35
  call void @_ZN2cv11_InputArrayD2Ev(ptr noundef nonnull align 8 dereferenceable(24) %14) #3
  call void @llvm.lifetime.end.p0(i64 24, ptr %14) #3
  call void @_ZN2cv11_InputArrayD2Ev(ptr noundef nonnull align 8 dereferenceable(24) %11) #3
  call void @llvm.lifetime.end.p0(i64 24, ptr %11) #3
  %39 = load ptr, ptr %5, align 8, !tbaa !115
  %40 = icmp ne ptr %39, null
  br i1 %40, label %41, label %63

41:                                               ; preds = %38
  %42 = load ptr, ptr %5, align 8, !tbaa !115
  %43 = invoke i32 @clReleaseMemObject(ptr noundef %42)
          to label %44 unwind label %59

44:                                               ; preds = %41
  br label %63

45:                                               ; preds = %3
  %46 = landingpad { ptr, i32 }
          cleanup
  %47 = extractvalue { ptr, i32 } %46, 0
  store ptr %47, ptr %12, align 8
  %48 = extractvalue { ptr, i32 } %46, 1
  store i32 %48, ptr %13, align 4
  br label %58

49:                                               ; preds = %32
  %50 = landingpad { ptr, i32 }
          cleanup
  %51 = extractvalue { ptr, i32 } %50, 0
  store ptr %51, ptr %12, align 8
  %52 = extractvalue { ptr, i32 } %50, 1
  store i32 %52, ptr %13, align 4
  br label %57

53:                                               ; preds = %35, %34, %33
  %54 = landingpad { ptr, i32 }
          cleanup
  %55 = extractvalue { ptr, i32 } %54, 0
  store ptr %55, ptr %12, align 8
  %56 = extractvalue { ptr, i32 } %54, 1
  store i32 %56, ptr %13, align 4
  call void @_ZN2cv11_InputArrayD2Ev(ptr noundef nonnull align 8 dereferenceable(24) %14) #3
  br label %57

57:                                               ; preds = %53, %49
  call void @llvm.lifetime.end.p0(i64 24, ptr %14) #3
  call void @_ZN2cv11_InputArrayD2Ev(ptr noundef nonnull align 8 dereferenceable(24) %11) #3
  br label %58

58:                                               ; preds = %57, %45
  call void @llvm.lifetime.end.p0(i64 24, ptr %11) #3
  br label %75

59:                                               ; preds = %68, %41
  %60 = landingpad { ptr, i32 }
          cleanup
  %61 = extractvalue { ptr, i32 } %60, 0
  store ptr %61, ptr %12, align 8
  %62 = extractvalue { ptr, i32 } %60, 1
  store i32 %62, ptr %13, align 4
  br label %75

63:                                               ; preds = %44, %38
  %64 = getelementptr inbounds nuw %class.App, ptr %17, i32 0, i32 23
  store ptr null, ptr %64, align 8, !tbaa !75
  %65 = getelementptr inbounds nuw %class.App, ptr %17, i32 0, i32 22
  %66 = load ptr, ptr %65, align 8, !tbaa !74
  %67 = icmp ne ptr %66, null
  br i1 %67, label %68, label %73

68:                                               ; preds = %63
  %69 = getelementptr inbounds nuw %class.App, ptr %17, i32 0, i32 22
  %70 = load ptr, ptr %69, align 8, !tbaa !74
  %71 = invoke i32 @clReleaseMemObject(ptr noundef %70)
          to label %72 unwind label %59

72:                                               ; preds = %68
  br label %73

73:                                               ; preds = %72, %63
  %74 = getelementptr inbounds nuw %class.App, ptr %17, i32 0, i32 22
  store ptr null, ptr %74, align 8, !tbaa !74
  call void @_ZN2cv4UMatD1Ev(ptr noundef nonnull align 8 dereferenceable(80) %10) #3
  call void @llvm.lifetime.end.p0(i64 80, ptr %10) #3
  call void @llvm.lifetime.end.p0(i64 16, ptr %9) #3
  call void @llvm.lifetime.end.p0(i64 8, ptr %8) #3
  call void @llvm.lifetime.end.p0(i64 8, ptr %7) #3
  ret i32 0

75:                                               ; preds = %59, %58
  call void @_ZN2cv4UMatD1Ev(ptr noundef nonnull align 8 dereferenceable(80) %10) #3
  call void @llvm.lifetime.end.p0(i64 80, ptr %10) #3
  call void @llvm.lifetime.end.p0(i64 16, ptr %9) #3
  call void @llvm.lifetime.end.p0(i64 8, ptr %8) #3
  call void @llvm.lifetime.end.p0(i64 8, ptr %7) #3
  br label %76

76:                                               ; preds = %75
  %77 = load ptr, ptr %12, align 8
  %78 = load i32, ptr %13, align 4
  %79 = insertvalue { ptr, i32 } poison, ptr %77, 0
  %80 = insertvalue { ptr, i32 } %79, i32 %78, 1
  resume { ptr, i32 } %80
}