; Function Attrs: mustprogress uwtable
define hidden noundef i32 @_ZN3App28process_cl_image_with_opencvEP7_cl_memRN2cv4UMatE(ptr noundef nonnull align 8 captures(none) dereferenceable(1328) %0, ptr noundef %1, ptr noundef nonnull align 8 dereferenceable(80) %2) local_unnamed_addr #3 align 2 personality ptr @__gxx_personality_v0 {
  %4 = alloca %"class.cv::Rect_", align 4
  %5 = alloca %"class.cv::UMat", align 8
  %6 = alloca %"class.cv::_InputArray", align 8
  %7 = alloca %"class.cv::_OutputArray", align 8
  tail call void @_ZN2cv3ocl16convertFromImageEPvRNS_4UMatE(ptr noundef %1, ptr noundef nonnull align 8 dereferenceable(80) %2)
  %8 = getelementptr inbounds nuw i8, ptr %2, i64 12
  %9 = load i32, ptr %8, align 4, !tbaa !124
  %10 = sdiv i32 %9, 2
  %11 = getelementptr inbounds nuw i8, ptr %2, i64 8
  %12 = load i32, ptr %11, align 8, !tbaa !127
  call void @llvm.lifetime.start.p0(i64 16, ptr nonnull %4) #23
  store i32 %10, ptr %4, align 4, !tbaa !128
  %13 = getelementptr inbounds nuw i8, ptr %4, i64 4
  store i32 0, ptr %13, align 4, !tbaa !130
  %14 = getelementptr inbounds nuw i8, ptr %4, i64 8
  store i32 %10, ptr %14, align 4, !tbaa !131
  %15 = getelementptr inbounds nuw i8, ptr %4, i64 12
  store i32 %12, ptr %15, align 4, !tbaa !132
  call void @llvm.lifetime.start.p0(i64 80, ptr nonnull %5) #23
  call void @_ZN2cv4UMatC1ERKS0_RKNS_5Rect_IiEE(ptr noundef nonnull align 8 dereferenceable(80) %5, ptr noundef nonnull align 8 dereferenceable(80) %2, ptr noundef nonnull align 4 dereferenceable(16) %4)
  call void @llvm.lifetime.start.p0(i64 24, ptr nonnull %6) #23
  %16 = getelementptr inbounds nuw i8, ptr %6, i64 16
  store i32 0, ptr %16, align 8, !tbaa !133
  %17 = getelementptr inbounds nuw i8, ptr %6, i64 20
  store i32 0, ptr %17, align 4, !tbaa !135
  store i32 17432576, ptr %6, align 8, !tbaa !136
  %18 = getelementptr inbounds nuw i8, ptr %6, i64 8
  store ptr %5, ptr %18, align 8, !tbaa !138
  call void @llvm.lifetime.start.p0(i64 24, ptr nonnull %7) #23
  %19 = getelementptr inbounds nuw i8, ptr %7, i64 8
  %20 = getelementptr inbounds nuw i8, ptr %7, i64 16
  store i64 0, ptr %20, align 8
  store i32 34209792, ptr %7, align 8, !tbaa !136
  store ptr %5, ptr %19, align 8, !tbaa !138
  invoke void @_ZN2cv4blurERKNS_11_InputArrayERKNS_12_OutputArrayENS_5Size_IiEENS_6Point_IiEEi(ptr noundef nonnull align 8 dereferenceable(24) %6, ptr noundef nonnull align 8 dereferenceable(24) %7, i64 30064771079, i64 -8589934595, i32 noundef 4)
          to label %21 unwind label %24

21:                                               ; preds = %3
  call void @llvm.lifetime.end.p0(i64 24, ptr nonnull %7) #23
  call void @llvm.lifetime.end.p0(i64 24, ptr nonnull %6) #23
  %.not = icmp eq ptr %1, null
  br i1 %.not, label %28, label %22

22:                                               ; preds = %21
  %23 = invoke i32 @clReleaseMemObject(ptr noundef nonnull %1)
          to label %28 unwind label %26

24:                                               ; preds = %3
  %25 = landingpad { ptr, i32 }
          cleanup
  call void @llvm.lifetime.end.p0(i64 24, ptr nonnull %7) #23
  call void @llvm.lifetime.end.p0(i64 24, ptr nonnull %6) #23
  br label %35

26:                                               ; preds = %32, %22
  %27 = landingpad { ptr, i32 }
          cleanup
  br label %35

28:                                               ; preds = %22, %21
  %29 = getelementptr inbounds nuw i8, ptr %0, i64 1320
  store ptr null, ptr %29, align 8, !tbaa !98
  %30 = getelementptr inbounds nuw i8, ptr %0, i64 1312
  %31 = load ptr, ptr %30, align 8, !tbaa !97
  %.not17 = icmp eq ptr %31, null
  br i1 %.not17, label %34, label %32

32:                                               ; preds = %28
  %33 = invoke i32 @clReleaseMemObject(ptr noundef nonnull %31)
          to label %34 unwind label %26

34:                                               ; preds = %32, %28
  store ptr null, ptr %30, align 8, !tbaa !97
  call void @_ZN2cv4UMatD1Ev(ptr noundef nonnull align 8 dereferenceable(80) %5) #23
  call void @llvm.lifetime.end.p0(i64 80, ptr nonnull %5) #23
  call void @llvm.lifetime.end.p0(i64 16, ptr nonnull %4) #23
  ret i32 0

35:                                               ; preds = %26, %24
  %.pn18 = phi { ptr, i32 } [ %27, %26 ], [ %25, %24 ]
  call void @_ZN2cv4UMatD1Ev(ptr noundef nonnull align 8 dereferenceable(80) %5) #23
  call void @llvm.lifetime.end.p0(i64 80, ptr nonnull %5) #23
  call void @llvm.lifetime.end.p0(i64 16, ptr nonnull %4) #23
  resume { ptr, i32 } %.pn18
}